; Function Attrs: nounwind uwtable
define internal void @evp_rand_free(ptr noundef %0) #0 {
  %2 = icmp eq ptr %0, null
  br i1 %2, label %12, label %3

3:                                                ; preds = %1
  %4 = getelementptr inbounds nuw i8, ptr %0, i64 32
  %5 = atomicrmw sub ptr %4, i32 1 release, align 4
  %6 = icmp eq i32 %5, 1
  br i1 %6, label %CRYPTO_DOWN_REF.exit.thread, label %CRYPTO_DOWN_REF.exit

CRYPTO_DOWN_REF.exit.thread:                      ; preds = %3
  fence acquire
  br label %8

CRYPTO_DOWN_REF.exit:                             ; preds = %3
  %7 = icmp sgt i32 %5, 1
  br i1 %7, label %12, label %8

8:                                                ; preds = %CRYPTO_DOWN_REF.exit.thread, %CRYPTO_DOWN_REF.exit
  %9 = getelementptr inbounds nuw i8, ptr %0, i64 16
  %10 = load ptr, ptr %9, align 8, !tbaa !22
  tail call void @CRYPTO_free(ptr noundef %10, ptr noundef nonnull @.str, i32 noundef 73) #8
  %11 = load ptr, ptr %0, align 8, !tbaa !23
  tail call void @ossl_provider_free(ptr noundef %11) #8
  tail call void @CRYPTO_free(ptr noundef nonnull %0, ptr noundef nonnull @.str, i32 noundef 76) #8
  br label %12

12:                                               ; preds = %CRYPTO_DOWN_REF.exit, %1, %8
  ret void
}